target datalayout = "e-m:e-p270:32:32-p271:32:32-p272:64:64-i64:64-i128:128-f80:128-n8:16:32:64-S128"
target triple = "x86_64-pc-linux-gnu"

%class.DfgVertex = type { ptr, %class.V3ListLinks, ptr, ptr, ptr, ptr, %class.VDfgType, i32, ptr }
%class.V3ListLinks = type { ptr, ptr }
%class.VDfgType = type { i16 }
%class.DfgVertexVar = type <{ %class.DfgVertexVariadic, ptr, i8, i8, i8, [5 x i8] }>
%class.DfgVertexVariadic = type { %class.DfgVertex, ptr, i32, i32 }

; Function Attrs: mustprogress nounwind uwtable
define linkonce_odr dso_local noundef zeroext i1 @_ZNK12DfgVertexVar10hasExtRefsEv(ptr noundef nonnull align 8 dereferenceable(99) %0) #5 comdat align 2 {
  %2 = alloca ptr, align 8
  store ptr %0, ptr %2, align 8
  %3 = load ptr, ptr %2, align 8
  %4 = getelementptr inbounds %class.DfgVertexVar, ptr %3, i32 0, i32 4
  %5 = load i8, ptr %4, align 2
  %6 = trunc i8 %5 to i1
  ret i1 %6
}

; Function Attrs: mustprogress nounwind uwtable
define linkonce_odr dso_local noundef zeroext i1 @_ZNK12DfgVertexVar10hasModRefsEv(ptr noundef nonnull align 8 dereferenceable(99) %0) #5 comdat align 2 {
  %2 = alloca ptr, align 8
  store ptr %0, ptr %2, align 8
  %3 = load ptr, ptr %2, align 8
  %4 = getelementptr inbounds %class.DfgVertexVar, ptr %3, i32 0, i32 3
  %5 = load i8, ptr %4, align 1
  %6 = trunc i8 %5 to i1
  ret i1 %6
}

; Function Attrs: mustprogress nounwind uwtable
define linkonce_odr dso_local noundef zeroext i1 @_ZNK12DfgVertexVar10hasDfgRefsEv(ptr noundef nonnull align 8 dereferenceable(99) %0) #5 comdat align 2 {
  %2 = alloca ptr, align 8
  store ptr %0, ptr %2, align 8
  %3 = load ptr, ptr %2, align 8
  %4 = getelementptr inbounds %class.DfgVertexVar, ptr %3, i32 0, i32 2
  %5 = load i8, ptr %4, align 8
  %6 = trunc i8 %5 to i1
  ret i1 %6
}

; Function Attrs: mustprogress nounwind uwtable
define linkonce_odr dso_local noundef zeroext i1 @_ZNK12DfgVertexVar15hasNonLocalRefsEv(ptr noundef nonnull align 8 dereferenceable(99) %0) #5 comdat align 2 {
  %2 = alloca ptr, align 8
  store ptr %0, ptr %2, align 8
  %3 = load ptr, ptr %2, align 8
  %4 = call noundef zeroext i1 @_ZNK12DfgVertexVar10hasDfgRefsEv(ptr noundef nonnull align 8 dereferenceable(99) %3)
  br i1 %4, label %9, label %5

5:                                                ; preds = %1
  %6 = call noundef zeroext i1 @_ZNK12DfgVertexVar10hasModRefsEv(ptr noundef nonnull align 8 dereferenceable(99) %3)
  br i1 %6, label %9, label %7

7:                                                ; preds = %5
  %8 = call noundef zeroext i1 @_ZNK12DfgVertexVar10hasExtRefsEv(ptr noundef nonnull align 8 dereferenceable(99) %3)
  br label %9

9:                                                ; preds = %7, %5, %1
  %10 = phi i1 [ true, %5 ], [ true, %1 ], [ %8, %7 ]
  ret i1 %10
}

; Function Attrs: mustprogress nounwind uwtable
define internal noundef zeroext i1 @"_ZZZNK8DfgGraph26dumpDotAllVarConesPrefixedERKNSt7__cxx1112basic_stringIcSt11char_traitsIcESaIcEEEENK3$_0clERK9DfgVertexENKUlRK12DfgVarPackedE_clESE_"(ptr noundef nonnull align 1 dereferenceable(1) %0, ptr noundef nonnull align 8 dereferenceable(128) %1) #5 align 2 {
  %3 = alloca ptr, align 8
  %4 = alloca ptr, align 8
  store ptr %0, ptr %3, align 8
  store ptr %1, ptr %4, align 8
  %5 = load ptr, ptr %4, align 8
  %6 = call noundef zeroext i1 @_ZNK12DfgVertexVar15hasNonLocalRefsEv(ptr noundef nonnull align 8 dereferenceable(99) %5)
  ret i1 %6
}

; Function Attrs: mustprogress nounwind uwtable
define linkonce_odr dso_local noundef ptr @_ZNKSt9_Any_data9_M_accessEv(ptr noundef nonnull align 8 dereferenceable(16) %0) #5 comdat align 2 {
  %2 = alloca ptr, align 8
  store ptr %0, ptr %2, align 8
  %3 = load ptr, ptr %2, align 8
  %4 = getelementptr inbounds [16 x i8], ptr %3, i64 0, i64 0
  ret ptr %4
}

; Function Attrs: mustprogress uwtable
define internal noundef zeroext i1 @"_ZSt13__invoke_implIbRZZNK8DfgGraph26dumpDotAllVarConesPrefixedERKNSt7__cxx1112basic_stringIcSt11char_traitsIcESaIcEEEENK3$_0clERK9DfgVertexEUlRK12DfgVarPackedE_JSF_EET_St14__invoke_otherOT0_DpOT1_"(ptr noundef nonnull align 1 dereferenceable(1) %0, ptr noundef nonnull align 8 dereferenceable(128) %1) #4 {
  %3 = alloca ptr, align 8
  %4 = alloca ptr, align 8
  store ptr %0, ptr %3, align 8
  store ptr %1, ptr %4, align 8
  %5 = load ptr, ptr %3, align 8
  %6 = load ptr, ptr %4, align 8
  %7 = call noundef zeroext i1 @"_ZZZNK8DfgGraph26dumpDotAllVarConesPrefixedERKNSt7__cxx1112basic_stringIcSt11char_traitsIcESaIcEEEENK3$_0clERK9DfgVertexENKUlRK12DfgVarPackedE_clESE_"(ptr noundef nonnull align 1 dereferenceable(1) %5, ptr noundef nonnull align 8 dereferenceable(128) %6)
  ret i1 %7
}

; Function Attrs: mustprogress nounwind uwtable
define internal noundef nonnull align 1 dereferenceable(1) ptr @"_ZNKSt9_Any_data9_M_accessIZZNK8DfgGraph26dumpDotAllVarConesPrefixedERKNSt7__cxx1112basic_stringIcSt11char_traitsIcESaIcEEEENK3$_0clERK9DfgVertexEUlRK12DfgVarPackedE_EERKT_v"(ptr noundef nonnull align 8 dereferenceable(16) %0) #5 align 2 {
  %2 = alloca ptr, align 8
  store ptr %0, ptr %2, align 8
  %3 = load ptr, ptr %2, align 8
  %4 = call noundef ptr @_ZNKSt9_Any_data9_M_accessEv(ptr noundef nonnull align 8 dereferenceable(16) %3) #3
  ret ptr %4
}

; Function Attrs: mustprogress uwtable
define internal noundef zeroext i1 @"_ZSt10__invoke_rIbRZZNK8DfgGraph26dumpDotAllVarConesPrefixedERKNSt7__cxx1112basic_stringIcSt11char_traitsIcESaIcEEEENK3$_0clERK9DfgVertexEUlRK12DfgVarPackedE_JSF_EENSt9enable_ifIX16is_invocable_r_vIT_T0_DpT1_EESJ_E4typeEOSK_DpOSL_"(ptr noundef nonnull align 1 dereferenceable(1) %0, ptr noundef nonnull align 8 dereferenceable(128) %1) #4 {
  %3 = alloca ptr, align 8
  %4 = alloca ptr, align 8
  store ptr %0, ptr %3, align 8
  store ptr %1, ptr %4, align 8
  %5 = load ptr, ptr %3, align 8
  %6 = load ptr, ptr %4, align 8
  %7 = call noundef zeroext i1 @"_ZSt13__invoke_implIbRZZNK8DfgGraph26dumpDotAllVarConesPrefixedERKNSt7__cxx1112basic_stringIcSt11char_traitsIcESaIcEEEENK3$_0clERK9DfgVertexEUlRK12DfgVarPackedE_JSF_EET_St14__invoke_otherOT0_DpOT1_"(ptr noundef nonnull align 1 dereferenceable(1) %5, ptr noundef nonnull align 8 dereferenceable(128) %6)
  ret i1 %7
}

; Function Attrs: mustprogress nounwind uwtable
define internal noundef ptr @"_ZNSt14_Function_base13_Base_managerIZZNK8DfgGraph26dumpDotAllVarConesPrefixedERKNSt7__cxx1112basic_stringIcSt11char_traitsIcESaIcEEEENK3$_0clERK9DfgVertexEUlRK12DfgVarPackedE_E14_M_get_pointerERKSt9_Any_data"(ptr noundef nonnull align 8 dereferenceable(16) %0) #5 align 2 {
  %2 = alloca ptr, align 8
  %3 = alloca ptr, align 8
  store ptr %0, ptr %2, align 8
  %4 = load ptr, ptr %2, align 8
  %5 = call noundef nonnull align 1 dereferenceable(1) ptr @"_ZNKSt9_Any_data9_M_accessIZZNK8DfgGraph26dumpDotAllVarConesPrefixedERKNSt7__cxx1112basic_stringIcSt11char_traitsIcESaIcEEEENK3$_0clERK9DfgVertexEUlRK12DfgVarPackedE_EERKT_v"(ptr noundef nonnull align 8 dereferenceable(16) %4) #3
  store ptr %5, ptr %3, align 8
  %6 = load ptr, ptr %3, align 8
  ret ptr %6
}

; Function Attrs: mustprogress uwtable
define internal noundef zeroext i1 @"_ZNSt17_Function_handlerIFbRK12DfgVarPackedEZZNK8DfgGraph26dumpDotAllVarConesPrefixedERKNSt7__cxx1112basic_stringIcSt11char_traitsIcESaIcEEEENK3$_0clERK9DfgVertexEUlS2_E_E9_M_invokeERKSt9_Any_dataS2_"(ptr noundef nonnull align 8 dereferenceable(16) %0, ptr noundef nonnull align 8 dereferenceable(128) %1) #4 align 2 {
  %3 = alloca ptr, align 8
  %4 = alloca ptr, align 8
  store ptr %0, ptr %3, align 8
  store ptr %1, ptr %4, align 8
  %5 = load ptr, ptr %3, align 8
  %6 = call noundef ptr @"_ZNSt14_Function_base13_Base_managerIZZNK8DfgGraph26dumpDotAllVarConesPrefixedERKNSt7__cxx1112basic_stringIcSt11char_traitsIcESaIcEEEENK3$_0clERK9DfgVertexEUlRK12DfgVarPackedE_E14_M_get_pointerERKSt9_Any_data"(ptr noundef nonnull align 8 dereferenceable(16) %5) #3
  %7 = load ptr, ptr %4, align 8
  %8 = call noundef zeroext i1 @"_ZSt10__invoke_rIbRZZNK8DfgGraph26dumpDotAllVarConesPrefixedERKNSt7__cxx1112basic_stringIcSt11char_traitsIcESaIcEEEENK3$_0clERK9DfgVertexEUlRK12DfgVarPackedE_JSF_EENSt9enable_ifIX16is_invocable_r_vIT_T0_DpT1_EESJ_E4typeEOSK_DpOSL_"(ptr noundef nonnull align 1 dereferenceable(1) %6, ptr noundef nonnull align 8 dereferenceable(128) %7)
  ret i1 %8
}