; Function Attrs: mustprogress nofree norecurse nosync nounwind willreturn memory(argmem: read) uwtable
define internal noundef zeroext i1 @"_ZNSt17_Function_handlerIFbRK12DfgVarPackedEZZNK8DfgGraph26dumpDotAllVarConesPrefixedERKNSt7__cxx1112basic_stringIcSt11char_traitsIcESaIcEEEENK3$_0clERK9DfgVertexEUlS2_E_E9_M_invokeERKSt9_Any_dataS2_"(ptr nocapture nonnull readnone align 8 %0, ptr nocapture noundef nonnull readonly align 8 dereferenceable(128) %1) #17 align 2 {
  %3 = getelementptr inbounds i8, ptr %1, i64 96
  %4 = load i8, ptr %3, align 8
  %5 = and i8 %4, 1
  %.not.i.i.i.i = icmp eq i8 %5, 0
  br i1 %.not.i.i.i.i, label %6, label %"_ZSt10__invoke_rIbRZZNK8DfgGraph26dumpDotAllVarConesPrefixedERKNSt7__cxx1112basic_stringIcSt11char_traitsIcESaIcEEEENK3$_0clERK9DfgVertexEUlRK12DfgVarPackedE_JSF_EENSt9enable_ifIX16is_invocable_r_vIT_T0_DpT1_EESJ_E4typeEOSK_DpOSL_.exit"

6:                                                ; preds = %2
  %7 = getelementptr inbounds i8, ptr %1, i64 97
  %8 = load i8, ptr %7, align 1
  %9 = and i8 %8, 1
  %.not1.i.i.i.i = icmp eq i8 %9, 0
  br i1 %.not1.i.i.i.i, label %10, label %"_ZSt10__invoke_rIbRZZNK8DfgGraph26dumpDotAllVarConesPrefixedERKNSt7__cxx1112basic_stringIcSt11char_traitsIcESaIcEEEENK3$_0clERK9DfgVertexEUlRK12DfgVarPackedE_JSF_EENSt9enable_ifIX16is_invocable_r_vIT_T0_DpT1_EESJ_E4typeEOSK_DpOSL_.exit"

10:                                               ; preds = %6
  %11 = getelementptr inbounds i8, ptr %1, i64 98
  %12 = load i8, ptr %11, align 2
  %13 = and i8 %12, 1
  %14 = icmp ne i8 %13, 0
  br label %"_ZSt10__invoke_rIbRZZNK8DfgGraph26dumpDotAllVarConesPrefixedERKNSt7__cxx1112basic_stringIcSt11char_traitsIcESaIcEEEENK3$_0clERK9DfgVertexEUlRK12DfgVarPackedE_JSF_EENSt9enable_ifIX16is_invocable_r_vIT_T0_DpT1_EESJ_E4typeEOSK_DpOSL_.exit"

"_ZSt10__invoke_rIbRZZNK8DfgGraph26dumpDotAllVarConesPrefixedERKNSt7__cxx1112basic_stringIcSt11char_traitsIcESaIcEEEENK3$_0clERK9DfgVertexEUlRK12DfgVarPackedE_JSF_EENSt9enable_ifIX16is_invocable_r_vIT_T0_DpT1_EESJ_E4typeEOSK_DpOSL_.exit": ; preds = %2, %6, %10
  %15 = phi i1 [ true, %6 ], [ true, %2 ], [ %14, %10 ]
  ret i1 %15
}